; Function Attrs: mustprogress nofree norecurse nosync nounwind willreturn memory(read, inaccessiblemem: none) uwtable
define i32 @Extra_FileReaderGetLineNumber(ptr noundef readonly captures(none) %0, i32 noundef %1) local_unnamed_addr #7 {
  %3 = getelementptr inbounds nuw i8, ptr %0, i64 328
  %4 = load ptr, ptr %3, align 8, !tbaa !36
  %5 = getelementptr inbounds nuw i8, ptr %4, i64 8
  %6 = load ptr, ptr %5, align 8, !tbaa !35
  %7 = sext i32 %1 to i64
  %8 = getelementptr inbounds i32, ptr %6, i64 %7
  %9 = load i32, ptr %8, align 4, !tbaa !38
  ret i32 %9
}